; Function Attrs: nounwind sspstrong uwtable
define dso_local void @ide_abort_command(ptr noundef captures(none) initializes((649, 650), (665, 666), (864, 888)) %s) local_unnamed_addr #0 {
entry:
  %status = getelementptr inbounds nuw i8, ptr %s, i64 665
  %error = getelementptr inbounds nuw i8, ptr %s, i64 649
  store i8 4, ptr %error, align 1
  %end_transfer_func.i.i = getelementptr inbounds nuw i8, ptr %s, i64 864
  store ptr @ide_transfer_stop, ptr %end_transfer_func.i.i, align 8
  %io_buffer.i.i = getelementptr inbounds nuw i8, ptr %s, i64 888
  %0 = load ptr, ptr %io_buffer.i.i, align 8
  %data_ptr.i.i = getelementptr inbounds nuw i8, ptr %s, i64 872
  store ptr %0, ptr %data_ptr.i.i, align 8
  %data_end.i.i = getelementptr inbounds nuw i8, ptr %s, i64 880
  store ptr %0, ptr %data_end.i.i, align 8
  store i8 65, ptr %status, align 1
  %s.val.i = load ptr, ptr %s, align 8
  %1 = getelementptr i8, ptr %s.val.i, i64 2120
  %s.val.val.i = load ptr, ptr %1, align 8
  %2 = load ptr, ptr %s.val.val.i, align 8
  %cmd_done.i.i = getelementptr inbounds nuw i8, ptr %2, i64 64
  %3 = load ptr, ptr %cmd_done.i.i, align 8
  %tobool.not.i.i = icmp eq ptr %3, null
  br i1 %tobool.not.i.i, label %ide_transfer_stop.exit, label %if.then.i.i

if.then.i.i:                                      ; preds = %entry
  tail call void %3(ptr noundef nonnull %s.val.val.i) #17
  br label %ide_transfer_stop.exit

ide_transfer_stop.exit:                           ; preds = %entry, %if.then.i.i
  ret void
}